CCS PCM C Compiler, Version 5.061, 43599               26-Þub-23 17:04

               Filename:   C:\Users\serka\Desktop\bcd\bcd.lst

               ROM used:   70 words (3%)
                           Largest free fragment is 1978
               RAM used:   6 (3%) at main() level
                           7 (3%) worst case
               Stack used: 0 locations
               Stack size: 8

*
0000:  MOVLW  00
0001:  MOVWF  0A
0002:  GOTO   019
0003:  NOP
.................... #include<16f628a.h> 
.................... //////////// Standard Header file for the PIC16F628A device //////////////// 
.................... /////////////////////////////////////////////////////////////////////////// 
.................... ////        (C) Copyright 1996, 2014 Custom Computer Services          //// 
.................... //// This source code may only be used by licensed users of the CCS C  //// 
.................... //// compiler.  This source code may only be distributed to other      //// 
.................... //// licensed users of the CCS C compiler.  No other use, reproduction //// 
.................... //// or distribution is permitted without written permission.          //// 
.................... //// Derivative programs created using this software in object code    //// 
.................... //// form are not restricted in any way.                               //// 
.................... /////////////////////////////////////////////////////////////////////////// 
.................... #device PIC16F628A 
....................  
.................... #list 
....................  
.................... #fuses INTRC_IO,nomclr 
.................... #use delay(clock=4m) 
0004:  MOVLW  21
0005:  MOVWF  04
0006:  BCF    03.7
0007:  MOVF   00,W
0008:  BTFSC  03.2
0009:  GOTO   018
000A:  MOVLW  01
000B:  MOVWF  78
000C:  CLRF   77
000D:  DECFSZ 77,F
000E:  GOTO   00D
000F:  DECFSZ 78,F
0010:  GOTO   00C
0011:  MOVLW  4A
0012:  MOVWF  77
0013:  DECFSZ 77,F
0014:  GOTO   013
0015:  GOTO   016
0016:  DECFSZ 00,F
0017:  GOTO   00A
0018:  GOTO   034 (RETURN)
....................  
.................... int i=1; 
....................  
.................... void main() 
0019:  MOVF   03,W
001A:  ANDLW  1F
001B:  MOVWF  03
001C:  BSF    03.5
001D:  BSF    0E.3
001E:  MOVLW  01
001F:  BCF    03.5
0020:  MOVWF  20
0021:  MOVLW  07
0022:  MOVWF  1F
0023:  BCF    03.7
.................... { 
.................... set_tris_a(0x01); 
0024:  MOVLW  01
0025:  BSF    03.5
0026:  MOVWF  05
.................... set_tris_b(0x00); 
0027:  MOVLW  00
0028:  MOVWF  06
....................  
.................... output_b(0x00); 
0029:  CLRF   06
002A:  BCF    03.5
002B:  CLRF   06
....................  
.................... while(true) 
.................... { 
.................... if(input(pin_a0)) 
002C:  BSF    03.5
002D:  BSF    05.0
002E:  BCF    03.5
002F:  BTFSS  05.0
0030:  GOTO   044
.................... { 
.................... delay_ms(15); 
0031:  MOVLW  0F
0032:  MOVWF  21
0033:  GOTO   004
.................... output_b(i); 
0034:  BSF    03.5
0035:  CLRF   06
0036:  BCF    03.5
0037:  MOVF   20,W
0038:  MOVWF  06
.................... i=i+1; 
0039:  MOVLW  01
003A:  ADDWF  20,F
.................... while(input(pin_a0)); 
003B:  BSF    03.5
003C:  BSF    05.0
003D:  BCF    03.5
003E:  BTFSC  05.0
003F:  GOTO   03B
....................  
.................... if(i==10) 
0040:  MOVF   20,W
0041:  SUBLW  0A
0042:  BTFSC  03.2
.................... i=0; 
0043:  CLRF   20
....................  
.................... } 
0044:  GOTO   02C
....................  
.................... } 
....................  
....................  
.................... } 
0045:  SLEEP

Configuration Fuses:
   Word  1: 3F50   NOWDT PUT INTRC_IO NOMCLR BROWNOUT NOLVP NOCPD NOPROTECT
